; Function Attrs: mustprogress nounwind uwtable
define internal void @_ZN12_GLOBAL__N_112CallSyncExit4EmitERN5clang7CodeGen15CodeGenFunctionENS2_12EHScopeStack7Cleanup5FlagsE(ptr noundef nonnull align 8 dereferenceable(32) %0, ptr noundef nonnull align 8 dereferenceable(6488) %1, i32 %2) unnamed_addr #0 align 2 {
  %4 = alloca %"class.llvm::Twine", align 8
  %5 = getelementptr inbounds nuw i8, ptr %0, i64 8
  %.sroa.0.0.copyload = load ptr, ptr %5, align 8
  %.sroa.2.0..sroa_idx = getelementptr inbounds i8, ptr %0, i64 16
  %.sroa.2.0.copyload = load ptr, ptr %.sroa.2.0..sroa_idx, align 8
  %6 = getelementptr inbounds nuw i8, ptr %0, i64 24
  %7 = getelementptr inbounds nuw i8, ptr %4, i64 32
  store i16 257, ptr %7, align 8
  %8 = call noundef ptr @_ZN5clang7CodeGen15CodeGenFunction23EmitNounwindRuntimeCallEN4llvm14FunctionCalleeENS2_8ArrayRefIPNS2_5ValueEEERKNS2_5TwineE(ptr noundef nonnull align 8 dereferenceable(6488) %1, ptr %.sroa.0.0.copyload, ptr %.sroa.2.0.copyload, ptr nonnull %6, i64 1, ptr noundef nonnull align 8 dereferenceable(34) %4) #13
  ret void
}